target datalayout = "e-m:e-p270:32:32-p271:32:32-p272:64:64-i64:64-i128:128-f80:128-n8:16:32:64-S128"
target triple = "x86_64-pc-linux-gnu"

%struct.ParallelApplyWorkerInfo = type { ptr, ptr, ptr, i8, i8, ptr }

@.str.2 = private unnamed_addr constant [22 x i8] c"applyparallelworker.c\00", align 1
@InterruptPending = external global i32, align 4
@MyLatch = external global ptr, align 8
@debug_logical_replication_streaming = external global i32, align 4
@.str.7 = private unnamed_addr constant [43 x i8] c"could not send data to shared-memory queue\00", align 1
@__func__.pa_send_data = private unnamed_addr constant [13 x i8] c"pa_send_data\00", align 1

; Function Attrs: nounwind uwtable
define dso_local zeroext i1 @pa_send_data(ptr noundef %0, i64 noundef %1, ptr noundef %2) #0 {
  %4 = alloca i1, align 1
  %5 = alloca ptr, align 8
  %6 = alloca i64, align 8
  %7 = alloca ptr, align 8
  %8 = alloca i32, align 4
  %9 = alloca i32, align 4
  %10 = alloca i64, align 8
  %11 = alloca i32, align 4
  store ptr %0, ptr %5, align 8
  store i64 %1, ptr %6, align 8
  store ptr %2, ptr %7, align 8
  call void @llvm.lifetime.start.p0(i64 4, ptr %8) #9
  call void @llvm.lifetime.start.p0(i64 4, ptr %9) #9
  call void @llvm.lifetime.start.p0(i64 8, ptr %10) #9
  store i64 0, ptr %10, align 8
  %12 = load i32, ptr @debug_logical_replication_streaming, align 4
  %13 = icmp eq i32 %12, 1
  %14 = zext i1 %13 to i32
  %15 = icmp ne i32 %14, 0
  %16 = zext i1 %15 to i32
  %17 = sext i32 %16 to i64
  %18 = call i64 @llvm.expect.i64(i64 %17, i64 0)
  %19 = icmp ne i64 %18, 0
  br i1 %19, label %20, label %21

20:                                               ; preds = %3
  store i1 false, ptr %4, align 1
  store i32 1, ptr %11, align 4
  br label %79

21:                                               ; preds = %3
  br label %22

22:                                               ; preds = %78, %21
  %23 = load ptr, ptr %5, align 8
  %24 = getelementptr inbounds nuw %struct.ParallelApplyWorkerInfo, ptr %23, i32 0, i32 0
  %25 = load ptr, ptr %24, align 8
  %26 = load i64, ptr %6, align 8
  %27 = load ptr, ptr %7, align 8
  %28 = call i32 @shm_mq_send(ptr noundef %25, i64 noundef %26, ptr noundef %27, i1 noundef zeroext true, i1 noundef zeroext true)
  store i32 %28, ptr %9, align 4
  %29 = load i32, ptr %9, align 4
  %30 = icmp eq i32 %29, 0
  br i1 %30, label %31, label %32

31:                                               ; preds = %22
  store i1 true, ptr %4, align 1
  store i32 1, ptr %11, align 4
  br label %79

32:                                               ; preds = %22
  %33 = load i32, ptr %9, align 4
  %34 = icmp eq i32 %33, 2
  br i1 %34, label %35, label %47

35:                                               ; preds = %32
  br label %36

36:                                               ; preds = %35
  br i1 true, label %37, label %39

37:                                               ; preds = %36
  %38 = call zeroext i1 @errstart_cold(i32 noundef 21, ptr noundef null) #10
  br i1 %38, label %41, label %44

39:                                               ; preds = %36
  %40 = call zeroext i1 @errstart(i32 noundef 21, ptr noundef null)
  br i1 %40, label %41, label %44

41:                                               ; preds = %39, %37
  %42 = call i32 @errcode(i32 noundef 325)
  %43 = call i32 (ptr, ...) @errmsg(ptr noundef @.str.7)
  call void @errfinish(ptr noundef @.str.2, i32 noundef 1180, ptr noundef @__func__.pa_send_data)
  br label %44

44:                                               ; preds = %41, %39, %37
  unreachable

45:                                               ; No predecessors!
  br label %46

46:                                               ; preds = %45
  br label %47

47:                                               ; preds = %46, %32
  br label %48

48:                                               ; preds = %47
  %49 = load ptr, ptr @MyLatch, align 8
  %50 = call i32 @WaitLatch(ptr noundef %49, i32 noundef 41, i64 noundef 1000, i32 noundef 134217757)
  store i32 %50, ptr %8, align 4
  %51 = load i32, ptr %8, align 4
  %52 = and i32 %51, 1
  %53 = icmp ne i32 %52, 0
  br i1 %53, label %54, label %67

54:                                               ; preds = %48
  %55 = load ptr, ptr @MyLatch, align 8
  call void @ResetLatch(ptr noundef %55)
  br label %56

56:                                               ; preds = %54
  %57 = load volatile i32, ptr @InterruptPending, align 4
  %58 = icmp ne i32 %57, 0
  %59 = zext i1 %58 to i32
  %60 = sext i32 %59 to i64
  %61 = call i64 @llvm.expect.i64(i64 %60, i64 0)
  %62 = icmp ne i64 %61, 0
  br i1 %62, label %63, label %64

63:                                               ; preds = %56
  call void @ProcessInterrupts()
  br label %64

64:                                               ; preds = %63, %56
  br label %65

65:                                               ; preds = %64
  br label %66

66:                                               ; preds = %65
  br label %67

67:                                               ; preds = %66, %48
  %68 = load i64, ptr %10, align 8
  %69 = icmp eq i64 %68, 0
  br i1 %69, label %70, label %72

70:                                               ; preds = %67
  %71 = call i64 @GetCurrentTimestamp()
  store i64 %71, ptr %10, align 8
  br label %78

72:                                               ; preds = %67
  %73 = load i64, ptr %10, align 8
  %74 = call i64 @GetCurrentTimestamp()
  %75 = call zeroext i1 @TimestampDifferenceExceeds(i64 noundef %73, i64 noundef %74, i32 noundef 9000)
  br i1 %75, label %76, label %77

76:                                               ; preds = %72
  store i1 false, ptr %4, align 1
  store i32 1, ptr %11, align 4
  br label %79

77:                                               ; preds = %72
  br label %78

78:                                               ; preds = %77, %70
  br label %22

79:                                               ; preds = %76, %31, %20
  call void @llvm.lifetime.end.p0(i64 8, ptr %10) #9
  call void @llvm.lifetime.end.p0(i64 4, ptr %9) #9
  call void @llvm.lifetime.end.p0(i64 4, ptr %8) #9
  %80 = load i1, ptr %4, align 1
  ret i1 %80
}