; Function Attrs: nounwind uwtable
define dso_local noundef zeroext i1 @pa_send_data(ptr noundef readonly captures(none) %0, i64 noundef %1, ptr noundef %2) local_unnamed_addr #0 {
  %4 = load i32, ptr @debug_logical_replication_streaming, align 4
  %5 = icmp eq i32 %4, 1
  br i1 %5, label %.loopexit, label %.preheader.outer, !prof !13

.preheader.outer:                                 ; preds = %21, %3
  %.0.ph = phi i64 [ 0, %3 ], [ %22, %21 ]
  %6 = icmp eq i64 %.0.ph, 0
  br label %.preheader

.preheader:                                       ; preds = %.preheader.outer, %23
  %7 = load ptr, ptr %0, align 8
  %8 = tail call i32 @shm_mq_send(ptr noundef %7, i64 noundef %1, ptr noundef %2, i1 noundef zeroext true, i1 noundef zeroext true) #10
  switch i32 %8, label %13 [
    i32 0, label %.loopexit
    i32 2, label %9
  ]

9:                                                ; preds = %.preheader
  %10 = tail call zeroext i1 @errstart_cold(i32 noundef 21, ptr noundef null) #11
  tail call void @llvm.assume(i1 %10)
  %11 = tail call i32 @errcode(i32 noundef 325) #10
  %12 = tail call i32 (ptr, ...) @errmsg(ptr noundef nonnull @.str.7) #10
  tail call void @errfinish(ptr noundef nonnull @.str.2, i32 noundef 1180, ptr noundef nonnull @__func__.pa_send_data) #10
  unreachable

13:                                               ; preds = %.preheader
  %14 = load ptr, ptr @MyLatch, align 8
  %15 = tail call i32 @WaitLatch(ptr noundef %14, i32 noundef 41, i64 noundef 1000, i32 noundef 134217757) #10
  %16 = and i32 %15, 1
  %.not = icmp eq i32 %16, 0
  br i1 %.not, label %21, label %17

17:                                               ; preds = %13
  %18 = load ptr, ptr @MyLatch, align 8
  tail call void @ResetLatch(ptr noundef %18) #10
  %19 = load volatile i32, ptr @InterruptPending, align 4
  %.not10 = icmp eq i32 %19, 0
  br i1 %.not10, label %21, label %20, !prof !10

20:                                               ; preds = %17
  tail call void @ProcessInterrupts() #10
  br label %21

21:                                               ; preds = %17, %20, %13
  %22 = tail call i64 @GetCurrentTimestamp() #10
  br i1 %6, label %.preheader.outer, label %23

23:                                               ; preds = %21
  %24 = tail call zeroext i1 @TimestampDifferenceExceeds(i64 noundef %.0.ph, i64 noundef %22, i32 noundef 9000) #10
  br i1 %24, label %.loopexit, label %.preheader

.loopexit:                                        ; preds = %23, %.preheader, %3
  %.08 = phi i1 [ false, %3 ], [ false, %23 ], [ true, %.preheader ]
  ret i1 %.08
}